(dp1
S'failed'
p2
(lp3
sS'source_names'
p4
(lp5
S'test'
p6
asS'ids'
p7
(dp8
I1
(S'/home/marco/dev/GEM/oq-irmt-qgis/test/test_attribute_selection_dialog.py'
S'test.test_attribute_selection_dialog'
p9
S'AttributeSelectionDialogTest.test_dialog_cancel'
tp10
sI2
(S'/home/marco/dev/GEM/oq-irmt-qgis/test/test_attribute_selection_dialog.py'
g9
S'AttributeSelectionDialogTest.test_dialog_ok'
tp11
sI3
(S'/home/marco/dev/GEM/oq-irmt-qgis/test/test_import_loss_from_csv.py'
S'test.test_import_loss_from_csv'
p12
S'ImportLossFromCsvTestCase.test_import_loss_from_csv_exported_by_oqengine'
tp13
sI4
(S'/home/marco/dev/GEM/oq-irmt-qgis/test/test_import_loss_from_csv.py'
g12
S'ImportLossFromCsvTestCase.test_import_loss_from_dummy_csv'
tp14
sI5
(S'/home/marco/dev/GEM/oq-irmt-qgis/test/test_init.py'
S'test.test_init'
S'TestInit.test_read_init'
tp15
sI6
(S'/home/marco/dev/GEM/oq-irmt-qgis/test/test_process_layer.py'
S'test.test_process_layer'
p16
S'AddAttributesTestCase.test_add_attributes'
tp17
sI7
(S'/home/marco/dev/GEM/oq-irmt-qgis/test/test_process_layer.py'
g16
S'AddAttributesTestCase.test_find_attribute_id'
tp18
sI8
(S'/home/marco/dev/GEM/oq-irmt-qgis/test/test_qgis_environment.py'
S'test.test_qgis_environment'
p19
S'QGISTest.test_projection'
tp20
sI9
(S'/home/marco/dev/GEM/oq-irmt-qgis/test/test_qgis_environment.py'
g19
S'QGISTest.test_qgis_environment'
tp21
sI10
(S'/home/marco/dev/GEM/oq-irmt-qgis/test/test_irmt.py'
S'test.test_irmt'
p22
S'IrmtTest.test_icon_png'
tp23
sI11
(S'/home/marco/dev/GEM/oq-irmt-qgis/test/test_irmt.py'
g22
S'IrmtTest.test_toggle_active_actions'
tp24
sI12
(S'/home/marco/dev/GEM/oq-irmt-qgis/test/test_transformations.py'
S'test.test_transformations'
p25
S'Log10TestCase.test_log10_all_positive_values'
tp26
sI13
(S'/home/marco/dev/GEM/oq-irmt-qgis/test/test_transformations.py'
g25
S'Log10TestCase.test_log10_incrementing_by_one_case_no_zeros_found'
tp27
sI14
(S'/home/marco/dev/GEM/oq-irmt-qgis/test/test_transformations.py'
g25
S'Log10TestCase.test_log10_incrementing_by_one_case_zeros_found'
tp28
sI15
(S'/home/marco/dev/GEM/oq-irmt-qgis/test/test_transformations.py'
g25
S'Log10TestCase.test_log10_with_negative_values'
tp29
sI16
(S'/home/marco/dev/GEM/oq-irmt-qgis/test/test_transformations.py'
g25
S'Log10TestCase.test_log10_with_zeros_unchanged'
tp30
sI17
(S'/home/marco/dev/GEM/oq-irmt-qgis/test/test_transformations.py'
g25
S'MinMaxTestCase.test_min_max_direct'
tp31
sI18
(S'/home/marco/dev/GEM/oq-irmt-qgis/test/test_transformations.py'
g25
S'MinMaxTestCase.test_min_max_inverse'
tp32
sI19
(S'/home/marco/dev/GEM/oq-irmt-qgis/test/test_transformations.py'
g25
S'MissingValuesTestCase.test_transform_with_missing_values'
tp33
sI20
(S'/home/marco/dev/GEM/oq-irmt-qgis/test/test_transformations.py'
g25
S'QuadraticTestCase.test_quadratic_direct_decreasing'
tp34
sI21
(S'/home/marco/dev/GEM/oq-irmt-qgis/test/test_transformations.py'
g25
S'QuadraticTestCase.test_quadratic_direct_increasing'
tp35
sI22
(S'/home/marco/dev/GEM/oq-irmt-qgis/test/test_transformations.py'
g25
S'QuadraticTestCase.test_quadratic_inverse_decreasing'
tp36
sI23
(S'/home/marco/dev/GEM/oq-irmt-qgis/test/test_transformations.py'
g25
S'QuadraticTestCase.test_quadratic_inverse_increasing'
tp37
sI24
(S'/home/marco/dev/GEM/oq-irmt-qgis/test/test_transformations.py'
g25
S'RankTestCase.test_rank_direct_average'
tp38
sI25
(S'/home/marco/dev/GEM/oq-irmt-qgis/test/test_transformations.py'
g25
S'RankTestCase.test_rank_direct_dense'
tp39
sI26
(S'/home/marco/dev/GEM/oq-irmt-qgis/test/test_transformations.py'
g25
S'RankTestCase.test_rank_direct_max'
tp40
sI27
(S'/home/marco/dev/GEM/oq-irmt-qgis/test/test_transformations.py'
g25
S'RankTestCase.test_rank_direct_min'
tp41
sI28
(S'/home/marco/dev/GEM/oq-irmt-qgis/test/test_transformations.py'
g25
S'RankTestCase.test_rank_direct_ordinal'
tp42
sI29
(S'/home/marco/dev/GEM/oq-irmt-qgis/test/test_transformations.py'
g25
S'RankTestCase.test_rank_inverse_average'
tp43
sI30
(S'/home/marco/dev/GEM/oq-irmt-qgis/test/test_transformations.py'
g25
S'RankTestCase.test_rank_inverse_dense'
tp44
sI31
(S'/home/marco/dev/GEM/oq-irmt-qgis/test/test_transformations.py'
g25
S'RankTestCase.test_rank_inverse_max'
tp45
sI32
(S'/home/marco/dev/GEM/oq-irmt-qgis/test/test_transformations.py'
g25
S'RankTestCase.test_rank_inverse_min'
tp46
sI33
(S'/home/marco/dev/GEM/oq-irmt-qgis/test/test_transformations.py'
g25
S'RankTestCase.test_rank_inverse_ordinal'
tp47
sI34
(S'/home/marco/dev/GEM/oq-irmt-qgis/test/test_transformations.py'
g25
S'SigmoidTestCase.test_sigmoid_direct'
tp48
sI35
(S'/home/marco/dev/GEM/oq-irmt-qgis/test/test_transformations.py'
g25
S'SigmoidTestCase.test_sigmoid_inverse'
tp49
sI36
(S'/home/marco/dev/GEM/oq-irmt-qgis/test/test_transformations.py'
g25
S'SigmoidTestCase.test_sigmoid_inverse_zero_division'
tp50
sI37
(S'/home/marco/dev/GEM/oq-irmt-qgis/test/test_transformations.py'
g25
S'ZScoreTestCase.test_z_score_direct'
tp51
sI38
(S'/home/marco/dev/GEM/oq-irmt-qgis/test/test_transformations.py'
g25
S'ZScoreTestCase.test_z_score_inverse'
tp52
sI39
(S'/home/marco/dev/GEM/oq-irmt-qgis/test/test_translations.py'
S'test.test_translations'
S'SafeTranslationsTest.test_qgis_translations'
tp53
sI40
(S'/home/marco/dev/GEM/oq-irmt-qgis/test/test_process_layer.py'
S'test.test_process_layer'
p54
S'CompareLayerContentTestCase.test_same_content_case_first_layer_has_more_features'
tp55
sI41
(S'/home/marco/dev/GEM/oq-irmt-qgis/test/test_process_layer.py'
g54
S'CompareLayerContentTestCase.test_same_content_case_layers_are_completely_different'
tp56
sI42
(S'/home/marco/dev/GEM/oq-irmt-qgis/test/test_process_layer.py'
g54
S'CompareLayerContentTestCase.test_same_content_case_layers_are_equal'
tp57
sI43
(S'/home/marco/dev/GEM/oq-irmt-qgis/test/test_process_layer.py'
g54
S'CompareLayerContentTestCase.test_same_content_case_second_layer_has_more_features'
tp58
sI44
(S'/home/marco/dev/GEM/oq-irmt-qgis/test/test_loss_aggreagation.py'
S'test.test_loss_aggreagation'
Ntp59
sI45
(S'/home/marco/dev/GEM/oq-irmt-qgis/test/test_loss_aggreagation.py'
S'test.test_loss_aggreagation'
p60
S'AggregateLossByZoneTestCase.test_aggregate_and_purge_empty_zones'
tp61
sI46
(S'/home/marco/dev/GEM/oq-irmt-qgis/test/test_loss_aggreagation.py'
g60
S'AggregateLossByZoneTestCase.test_aggregate_using_geometries'
tp62
sI47
(S'/home/marco/dev/GEM/oq-irmt-qgis/test/test_loss_aggreagation.py'
g60
S'AggregateLossByZoneTestCase.test_aggregate_using_zone_id'
tp63
sI48
(S'/home/marco/dev/GEM/oq-svir-qgis/oq_irmt/test/test_attribute_selection_dialog.py'
S'oq_irmt.test.test_attribute_selection_dialog'
p64
S'AttributeSelectionDialogTest.test_dialog_cancel'
tp65
sI49
(S'/home/marco/dev/GEM/oq-svir-qgis/oq_irmt/test/test_attribute_selection_dialog.py'
g64
S'AttributeSelectionDialogTest.test_dialog_ok'
tp66
sI50
(S'/home/marco/dev/GEM/oq-svir-qgis/oq_irmt/test/test_calculate_indices.py'
S'oq_irmt.test.test_calculate_indices'
p67
S'CalculateCompositeVariableTestCase.test_average'
tp68
sI51
(S'/home/marco/dev/GEM/oq-svir-qgis/oq_irmt/test/test_calculate_indices.py'
g67
S'CalculateCompositeVariableTestCase.test_calculate_svi'
tp69
sI52
(S'/home/marco/dev/GEM/oq-svir-qgis/oq_irmt/test/test_calculate_indices.py'
g67
S'CalculateCompositeVariableTestCase.test_geometric_mean_negative_argument'
tp70
sI53
(S'/home/marco/dev/GEM/oq-svir-qgis/oq_irmt/test/test_calculate_indices.py'
g67
S'CalculateCompositeVariableTestCase.test_geometric_mean_positive_argument'
tp71
sI54
(S'/home/marco/dev/GEM/oq-svir-qgis/oq_irmt/test/test_calculate_indices.py'
g67
S'CalculateCompositeVariableTestCase.test_simple_multiplication'
tp72
sI55
(S'/home/marco/dev/GEM/oq-svir-qgis/oq_irmt/test/test_calculate_indices.py'
g67
S'CalculateCompositeVariableTestCase.test_simple_sum'
tp73
sI56
(S'/home/marco/dev/GEM/oq-svir-qgis/oq_irmt/test/test_calculate_indices.py'
g67
S'CalculateCompositeVariableTestCase.test_weighted_multiplication'
tp74
sI57
(S'/home/marco/dev/GEM/oq-svir-qgis/oq_irmt/test/test_calculate_indices.py'
g67
S'CalculateCompositeVariableTestCase.test_weighted_sum'
tp75
sI58
(S'/home/marco/dev/GEM/oq-svir-qgis/oq_irmt/test/test_import_loss_from_csv.py'
S'oq_irmt.test.test_import_loss_from_csv'
p76
S'ImportLossFromCsvTestCase.test_import_loss_from_csv_exported_by_oqengine'
tp77
sI59
(S'/home/marco/dev/GEM/oq-svir-qgis/oq_irmt/test/test_import_loss_from_csv.py'
g76
S'ImportLossFromCsvTestCase.test_import_loss_from_dummy_csv'
tp78
sI60
(S'/home/marco/dev/GEM/oq-svir-qgis/oq_irmt/test/test_init.py'
S'oq_irmt.test.test_init'
S'TestInit.test_read_init'
tp79
sI61
(S'/home/marco/dev/GEM/oq-svir-qgis/oq_irmt/test/test_irmt.py'
S'oq_irmt.test.test_irmt'
p80
S'IrmtTest.test_icon_png'
tp81
sI62
(S'/home/marco/dev/GEM/oq-svir-qgis/oq_irmt/test/test_irmt.py'
g80
S'IrmtTest.test_toggle_active_actions'
tp82
sI63
(S'/home/marco/dev/GEM/oq-svir-qgis/oq_irmt/test/test_loss_aggreagation.py'
S'oq_irmt.test.test_loss_aggreagation'
Ntp83
sI64
(S'/home/marco/dev/GEM/oq-svir-qgis/oq_irmt/test/test_metadata_utilities.py'
S'oq_irmt.test.test_metadata_utilities'
p84
S'TestCase.test_generate_iso_metadata'
tp85
sI65
(S'/home/marco/dev/GEM/oq-svir-qgis/oq_irmt/test/test_metadata_utilities.py'
g84
S'TestCase.test_valid_iso_xml'
tp86
sI66
(S'/home/marco/dev/GEM/oq-svir-qgis/oq_irmt/test/test_process_layer.py'
S'oq_irmt.test.test_process_layer'
p87
S'AddAttributesTestCase.test_add_attributes'
tp88
sI67
(S'/home/marco/dev/GEM/oq-svir-qgis/oq_irmt/test/test_process_layer.py'
g87
S'AddAttributesTestCase.test_find_attribute_id'
tp89
sI68
(S'/home/marco/dev/GEM/oq-svir-qgis/oq_irmt/test/test_process_layer.py'
g87
S'CheckProjectionsTestCase.test_different_projections'
tp90
sI69
(S'/home/marco/dev/GEM/oq-svir-qgis/oq_irmt/test/test_process_layer.py'
g87
S'CheckProjectionsTestCase.test_same_projections'
tp91
sI70
(S'/home/marco/dev/GEM/oq-svir-qgis/oq_irmt/test/test_process_layer.py'
g87
S'CompareLayerContentTestCase.test_same_content_case_first_layer_has_more_features'
tp92
sI71
(S'/home/marco/dev/GEM/oq-svir-qgis/oq_irmt/test/test_process_layer.py'
g87
S'CompareLayerContentTestCase.test_same_content_case_layers_are_completely_different'
tp93
sI72
(S'/home/marco/dev/GEM/oq-svir-qgis/oq_irmt/test/test_process_layer.py'
g87
S'CompareLayerContentTestCase.test_same_content_case_layers_are_equal'
tp94
sI73
(S'/home/marco/dev/GEM/oq-svir-qgis/oq_irmt/test/test_process_layer.py'
g87
S'CompareLayerContentTestCase.test_same_content_case_second_layer_has_more_features'
tp95
sI74
(S'/home/marco/dev/GEM/oq-svir-qgis/oq_irmt/test/test_qgis_environment.py'
S'oq_irmt.test.test_qgis_environment'
p96
S'QGISTest.test_projection'
tp97
sI75
(S'/home/marco/dev/GEM/oq-svir-qgis/oq_irmt/test/test_qgis_environment.py'
g96
S'QGISTest.test_qgis_environment'
tp98
sI76
(S'/home/marco/dev/GEM/oq-svir-qgis/oq_irmt/test/test_transformations.py'
S'oq_irmt.test.test_transformations'
p99
S'Log10TestCase.test_log10_all_positive_values'
tp100
sI77
(S'/home/marco/dev/GEM/oq-svir-qgis/oq_irmt/test/test_transformations.py'
g99
S'Log10TestCase.test_log10_incrementing_by_one_case_no_zeros_found'
tp101
sI78
(S'/home/marco/dev/GEM/oq-svir-qgis/oq_irmt/test/test_transformations.py'
g99
S'Log10TestCase.test_log10_incrementing_by_one_case_zeros_found'
tp102
sI79
(S'/home/marco/dev/GEM/oq-svir-qgis/oq_irmt/test/test_transformations.py'
g99
S'Log10TestCase.test_log10_with_negative_values'
tp103
sI80
(S'/home/marco/dev/GEM/oq-svir-qgis/oq_irmt/test/test_transformations.py'
g99
S'Log10TestCase.test_log10_with_zeros_unchanged'
tp104
sI81
(S'/home/marco/dev/GEM/oq-svir-qgis/oq_irmt/test/test_transformations.py'
g99
S'MinMaxTestCase.test_min_max_direct'
tp105
sI82
(S'/home/marco/dev/GEM/oq-svir-qgis/oq_irmt/test/test_transformations.py'
g99
S'MinMaxTestCase.test_min_max_inverse'
tp106
sI83
(S'/home/marco/dev/GEM/oq-svir-qgis/oq_irmt/test/test_transformations.py'
g99
S'MissingValuesTestCase.test_transform_with_missing_values'
tp107
sI84
(S'/home/marco/dev/GEM/oq-svir-qgis/oq_irmt/test/test_transformations.py'
g99
S'QuadraticTestCase.test_quadratic_direct_decreasing'
tp108
sI85
(S'/home/marco/dev/GEM/oq-svir-qgis/oq_irmt/test/test_transformations.py'
g99
S'QuadraticTestCase.test_quadratic_direct_increasing'
tp109
sI86
(S'/home/marco/dev/GEM/oq-svir-qgis/oq_irmt/test/test_transformations.py'
g99
S'QuadraticTestCase.test_quadratic_inverse_decreasing'
tp110
sI87
(S'/home/marco/dev/GEM/oq-svir-qgis/oq_irmt/test/test_transformations.py'
g99
S'QuadraticTestCase.test_quadratic_inverse_increasing'
tp111
sI88
(S'/home/marco/dev/GEM/oq-svir-qgis/oq_irmt/test/test_transformations.py'
g99
S'RankTestCase.test_rank_direct_average'
tp112
sI89
(S'/home/marco/dev/GEM/oq-svir-qgis/oq_irmt/test/test_transformations.py'
g99
S'RankTestCase.test_rank_direct_dense'
tp113
sI90
(S'/home/marco/dev/GEM/oq-svir-qgis/oq_irmt/test/test_transformations.py'
g99
S'RankTestCase.test_rank_direct_max'
tp114
sI91
(S'/home/marco/dev/GEM/oq-svir-qgis/oq_irmt/test/test_transformations.py'
g99
S'RankTestCase.test_rank_direct_min'
tp115
sI92
(S'/home/marco/dev/GEM/oq-svir-qgis/oq_irmt/test/test_transformations.py'
g99
S'RankTestCase.test_rank_direct_ordinal'
tp116
sI93
(S'/home/marco/dev/GEM/oq-svir-qgis/oq_irmt/test/test_transformations.py'
g99
S'RankTestCase.test_rank_inverse_average'
tp117
sI94
(S'/home/marco/dev/GEM/oq-svir-qgis/oq_irmt/test/test_transformations.py'
g99
S'RankTestCase.test_rank_inverse_dense'
tp118
sI95
(S'/home/marco/dev/GEM/oq-svir-qgis/oq_irmt/test/test_transformations.py'
g99
S'RankTestCase.test_rank_inverse_max'
tp119
sI96
(S'/home/marco/dev/GEM/oq-svir-qgis/oq_irmt/test/test_transformations.py'
g99
S'RankTestCase.test_rank_inverse_min'
tp120
sI97
(S'/home/marco/dev/GEM/oq-svir-qgis/oq_irmt/test/test_transformations.py'
g99
S'RankTestCase.test_rank_inverse_ordinal'
tp121
sI98
(S'/home/marco/dev/GEM/oq-svir-qgis/oq_irmt/test/test_transformations.py'
g99
S'SigmoidTestCase.test_sigmoid_direct'
tp122
sI99
(S'/home/marco/dev/GEM/oq-svir-qgis/oq_irmt/test/test_transformations.py'
g99
S'SigmoidTestCase.test_sigmoid_inverse'
tp123
sI100
(S'/home/marco/dev/GEM/oq-svir-qgis/oq_irmt/test/test_transformations.py'
g99
S'SigmoidTestCase.test_sigmoid_inverse_zero_division'
tp124
sI101
(S'/home/marco/dev/GEM/oq-svir-qgis/oq_irmt/test/test_transformations.py'
g99
S'ZScoreTestCase.test_z_score_direct'
tp125
sI102
(S'/home/marco/dev/GEM/oq-svir-qgis/oq_irmt/test/test_transformations.py'
g99
S'ZScoreTestCase.test_z_score_inverse'
tp126
sI103
(S'/home/marco/dev/GEM/oq-svir-qgis/oq_irmt/test/test_translations.py'
S'oq_irmt.test.test_translations'
S'SafeTranslationsTest.test_qgis_translations'
tp127
sI104
(S'/home/marco/dev/GEM/oq-svir-qgis/oq_irmt/test/test_loss_aggreagation.py'
S'oq_irmt.test.test_loss_aggreagation'
p128
S'AggregateLossByZoneTestCase.test_aggregate_using_geometries'
tp129
sI105
(S'/home/marco/dev/GEM/oq-svir-qgis/oq_irmt/test/test_loss_aggreagation.py'
g128
S'AggregateLossByZoneTestCase.test_aggregate_using_zone_id'
tp130
sI106
(S'/home/marco/dev/GEM/oq-svir-qgis/oq_irmt/test/test_loss_aggreagation.py'
g128
S'AggregateLossByZoneTestCase.test_purge_empty_zones'
tp131
ss.