(dp1
S'failed'
p2
(lp3
S'44'
p4
aS'46'
p5
asS'source_names'
p6
(lp7
S'test'
p8
asS'ids'
p9
(dp10
I1
(S'/home/marco/dev/GEM/oq-irmt-qgis/test/test_attribute_selection_dialog.py'
S'test.test_attribute_selection_dialog'
p11
S'AttributeSelectionDialogTest.test_dialog_cancel'
tp12
sI2
(S'/home/marco/dev/GEM/oq-irmt-qgis/test/test_attribute_selection_dialog.py'
g11
S'AttributeSelectionDialogTest.test_dialog_ok'
tp13
sI3
(S'/home/marco/dev/GEM/oq-irmt-qgis/test/test_import_loss_from_csv.py'
S'test.test_import_loss_from_csv'
p14
S'ImportLossFromCsvTestCase.test_import_loss_from_csv_exported_by_oqengine'
tp15
sI4
(S'/home/marco/dev/GEM/oq-irmt-qgis/test/test_import_loss_from_csv.py'
g14
S'ImportLossFromCsvTestCase.test_import_loss_from_dummy_csv'
tp16
sI5
(S'/home/marco/dev/GEM/oq-irmt-qgis/test/test_init.py'
S'test.test_init'
S'TestInit.test_read_init'
tp17
sI6
(S'/home/marco/dev/GEM/oq-irmt-qgis/test/test_process_layer.py'
S'test.test_process_layer'
p18
S'AddAttributesTestCase.test_add_attributes'
tp19
sI7
(S'/home/marco/dev/GEM/oq-irmt-qgis/test/test_process_layer.py'
g18
S'AddAttributesTestCase.test_find_attribute_id'
tp20
sI8
(S'/home/marco/dev/GEM/oq-irmt-qgis/test/test_qgis_environment.py'
S'test.test_qgis_environment'
p21
S'QGISTest.test_projection'
tp22
sI9
(S'/home/marco/dev/GEM/oq-irmt-qgis/test/test_qgis_environment.py'
g21
S'QGISTest.test_qgis_environment'
tp23
sI10
(S'/home/marco/dev/GEM/oq-irmt-qgis/test/test_irmt.py'
S'test.test_irmt'
p24
S'IrmtTest.test_icon_png'
tp25
sI11
(S'/home/marco/dev/GEM/oq-irmt-qgis/test/test_irmt.py'
g24
S'IrmtTest.test_toggle_active_actions'
tp26
sI12
(S'/home/marco/dev/GEM/oq-irmt-qgis/test/test_transformations.py'
S'test.test_transformations'
p27
S'Log10TestCase.test_log10_all_positive_values'
tp28
sI13
(S'/home/marco/dev/GEM/oq-irmt-qgis/test/test_transformations.py'
g27
S'Log10TestCase.test_log10_incrementing_by_one_case_no_zeros_found'
tp29
sI14
(S'/home/marco/dev/GEM/oq-irmt-qgis/test/test_transformations.py'
g27
S'Log10TestCase.test_log10_incrementing_by_one_case_zeros_found'
tp30
sI15
(S'/home/marco/dev/GEM/oq-irmt-qgis/test/test_transformations.py'
g27
S'Log10TestCase.test_log10_with_negative_values'
tp31
sI16
(S'/home/marco/dev/GEM/oq-irmt-qgis/test/test_transformations.py'
g27
S'Log10TestCase.test_log10_with_zeros_unchanged'
tp32
sI17
(S'/home/marco/dev/GEM/oq-irmt-qgis/test/test_transformations.py'
g27
S'MinMaxTestCase.test_min_max_direct'
tp33
sI18
(S'/home/marco/dev/GEM/oq-irmt-qgis/test/test_transformations.py'
g27
S'MinMaxTestCase.test_min_max_inverse'
tp34
sI19
(S'/home/marco/dev/GEM/oq-irmt-qgis/test/test_transformations.py'
g27
S'MissingValuesTestCase.test_transform_with_missing_values'
tp35
sI20
(S'/home/marco/dev/GEM/oq-irmt-qgis/test/test_transformations.py'
g27
S'QuadraticTestCase.test_quadratic_direct_decreasing'
tp36
sI21
(S'/home/marco/dev/GEM/oq-irmt-qgis/test/test_transformations.py'
g27
S'QuadraticTestCase.test_quadratic_direct_increasing'
tp37
sI22
(S'/home/marco/dev/GEM/oq-irmt-qgis/test/test_transformations.py'
g27
S'QuadraticTestCase.test_quadratic_inverse_decreasing'
tp38
sI23
(S'/home/marco/dev/GEM/oq-irmt-qgis/test/test_transformations.py'
g27
S'QuadraticTestCase.test_quadratic_inverse_increasing'
tp39
sI24
(S'/home/marco/dev/GEM/oq-irmt-qgis/test/test_transformations.py'
g27
S'RankTestCase.test_rank_direct_average'
tp40
sI25
(S'/home/marco/dev/GEM/oq-irmt-qgis/test/test_transformations.py'
g27
S'RankTestCase.test_rank_direct_dense'
tp41
sI26
(S'/home/marco/dev/GEM/oq-irmt-qgis/test/test_transformations.py'
g27
S'RankTestCase.test_rank_direct_max'
tp42
sI27
(S'/home/marco/dev/GEM/oq-irmt-qgis/test/test_transformations.py'
g27
S'RankTestCase.test_rank_direct_min'
tp43
sI28
(S'/home/marco/dev/GEM/oq-irmt-qgis/test/test_transformations.py'
g27
S'RankTestCase.test_rank_direct_ordinal'
tp44
sI29
(S'/home/marco/dev/GEM/oq-irmt-qgis/test/test_transformations.py'
g27
S'RankTestCase.test_rank_inverse_average'
tp45
sI30
(S'/home/marco/dev/GEM/oq-irmt-qgis/test/test_transformations.py'
g27
S'RankTestCase.test_rank_inverse_dense'
tp46
sI31
(S'/home/marco/dev/GEM/oq-irmt-qgis/test/test_transformations.py'
g27
S'RankTestCase.test_rank_inverse_max'
tp47
sI32
(S'/home/marco/dev/GEM/oq-irmt-qgis/test/test_transformations.py'
g27
S'RankTestCase.test_rank_inverse_min'
tp48
sI33
(S'/home/marco/dev/GEM/oq-irmt-qgis/test/test_transformations.py'
g27
S'RankTestCase.test_rank_inverse_ordinal'
tp49
sI34
(S'/home/marco/dev/GEM/oq-irmt-qgis/test/test_transformations.py'
g27
S'SigmoidTestCase.test_sigmoid_direct'
tp50
sI35
(S'/home/marco/dev/GEM/oq-irmt-qgis/test/test_transformations.py'
g27
S'SigmoidTestCase.test_sigmoid_inverse'
tp51
sI36
(S'/home/marco/dev/GEM/oq-irmt-qgis/test/test_transformations.py'
g27
S'SigmoidTestCase.test_sigmoid_inverse_zero_division'
tp52
sI37
(S'/home/marco/dev/GEM/oq-irmt-qgis/test/test_transformations.py'
g27
S'ZScoreTestCase.test_z_score_direct'
tp53
sI38
(S'/home/marco/dev/GEM/oq-irmt-qgis/test/test_transformations.py'
g27
S'ZScoreTestCase.test_z_score_inverse'
tp54
sI39
(S'/home/marco/dev/GEM/oq-irmt-qgis/test/test_translations.py'
S'test.test_translations'
S'SafeTranslationsTest.test_qgis_translations'
tp55
sI40
(S'/home/marco/dev/GEM/oq-irmt-qgis/test/test_process_layer.py'
S'test.test_process_layer'
p56
S'CompareLayerContentTestCase.test_same_content_case_first_layer_has_more_features'
tp57
sI41
(S'/home/marco/dev/GEM/oq-irmt-qgis/test/test_process_layer.py'
g56
S'CompareLayerContentTestCase.test_same_content_case_layers_are_completely_different'
tp58
sI42
(S'/home/marco/dev/GEM/oq-irmt-qgis/test/test_process_layer.py'
g56
S'CompareLayerContentTestCase.test_same_content_case_layers_are_equal'
tp59
sI43
(S'/home/marco/dev/GEM/oq-irmt-qgis/test/test_process_layer.py'
g56
S'CompareLayerContentTestCase.test_same_content_case_second_layer_has_more_features'
tp60
sI44
(S'/home/marco/dev/GEM/oq-irmt-qgis/test/test_loss_aggreagation.py'
S'test.test_loss_aggreagation'
Ntp61
sI45
(S'/home/marco/dev/GEM/oq-irmt-qgis/test/test_loss_aggreagation.py'
S'test.test_loss_aggreagation'
p62
S'AggregateLossByZoneTestCase.test_aggregate_and_purge_empty_zones'
tp63
sI46
(S'/home/marco/dev/GEM/oq-irmt-qgis/test/test_loss_aggreagation.py'
g62
S'AggregateLossByZoneTestCase.test_aggregate_using_geometries'
tp64
sI47
(S'/home/marco/dev/GEM/oq-irmt-qgis/test/test_loss_aggreagation.py'
g62
S'AggregateLossByZoneTestCase.test_aggregate_using_zone_id'
tp65
ss.